target datalayout = "e-m:e-p270:32:32-p271:32:32-p272:64:64-i64:64-i128:128-f80:128-n8:16:32:64-S128"
target triple = "x86_64-pc-linux-gnu"

%"struct.duckdb_zstd::buffer_s" = type { ptr, i64 }
%"struct.duckdb_zstd::range_t" = type { ptr, i64 }
%"struct.duckdb_zstd::ZSTD_customMem" = type { ptr, ptr, ptr }
%"struct.duckdb_zstd::ZSTDMT_CCtx_s" = type { ptr, ptr, ptr, ptr, ptr, %"struct.duckdb_zstd::ZSTD_CCtx_params_s", i64, i64, i32, %"struct.duckdb_zstd::inBuff_t", %"struct.duckdb_zstd::roundBuff_t", %"struct.duckdb_zstd::serialState_t", %"struct.duckdb_zstd::rsyncState_t", i32, i32, i32, i32, i32, i64, i64, i64, %"struct.duckdb_zstd::ZSTD_customMem", ptr, ptr, i8 }
%"struct.duckdb_zstd::ZSTD_CCtx_params_s" = type { i32, %"struct.duckdb_zstd::ZSTD_compressionParameters", %"struct.duckdb_zstd::ZSTD_frameParameters", i32, i32, i64, i32, i32, i32, i32, i64, i32, i32, %"struct.duckdb_zstd::ldmParams_t", i32, i32, i32, i32, i32, i32, i32, i32, %"struct.duckdb_zstd::ZSTD_customMem", i32, i32, ptr, ptr, i64, i32 }
%"struct.duckdb_zstd::ZSTD_compressionParameters" = type { i32, i32, i32, i32, i32, i32, i32 }
%"struct.duckdb_zstd::ZSTD_frameParameters" = type { i32, i32, i32 }
%"struct.duckdb_zstd::ldmParams_t" = type { i32, i32, i32, i32, i32, i32 }
%"struct.duckdb_zstd::inBuff_t" = type { %"struct.duckdb_zstd::range_t", %"struct.duckdb_zstd::buffer_s", i64 }
%"struct.duckdb_zstd::roundBuff_t" = type { ptr, i64, i64 }
%"struct.duckdb_zstd::serialState_t" = type { i32, i32, %"struct.duckdb_zstd::ZSTD_CCtx_params_s", %"struct.duckdb_zstd::ldmState_t", %"struct.duckdb_zstd::XXH64_state_s", i32, i32, i32, %"struct.duckdb_zstd::ZSTD_window_t" }
%"struct.duckdb_zstd::ldmState_t" = type { %"struct.duckdb_zstd::ZSTD_window_t", ptr, i32, ptr, [64 x i64], [64 x %"struct.duckdb_zstd::ldmMatchCandidate_t"] }
%"struct.duckdb_zstd::ldmMatchCandidate_t" = type { ptr, i32, i32, ptr }
%"struct.duckdb_zstd::XXH64_state_s" = type { i64, i64, i64, i64, i64, [4 x i64], i32, [2 x i32] }
%"struct.duckdb_zstd::ZSTD_window_t" = type { ptr, ptr, ptr, i32, i32, i32 }
%"struct.duckdb_zstd::rsyncState_t" = type { i64, i64, i64 }

; Function Attrs: mustprogress nounwind uwtable
define noundef i64 @_ZN11duckdb_zstd24ZSTDMT_nextInputSizeHintEPKNS_13ZSTDMT_CCtx_sE(ptr noundef %0) #0 {
  %2 = alloca ptr, align 8
  %3 = alloca i64, align 8
  store ptr %0, ptr %2, align 8, !tbaa !10
  call void @llvm.lifetime.start.p0(i64 8, ptr %3) #12
  %4 = load ptr, ptr %2, align 8, !tbaa !10
  %5 = getelementptr inbounds nuw %"struct.duckdb_zstd::ZSTDMT_CCtx_s", ptr %4, i32 0, i32 6
  %6 = load i64, ptr %5, align 8, !tbaa !121
  %7 = load ptr, ptr %2, align 8, !tbaa !10
  %8 = getelementptr inbounds nuw %"struct.duckdb_zstd::ZSTDMT_CCtx_s", ptr %7, i32 0, i32 9
  %9 = getelementptr inbounds nuw %"struct.duckdb_zstd::inBuff_t", ptr %8, i32 0, i32 2
  %10 = load i64, ptr %9, align 8, !tbaa !55
  %11 = sub i64 %6, %10
  store i64 %11, ptr %3, align 8, !tbaa !52
  %12 = load i64, ptr %3, align 8, !tbaa !52
  %13 = icmp eq i64 %12, 0
  br i1 %13, label %14, label %18

14:                                               ; preds = %1
  %15 = load ptr, ptr %2, align 8, !tbaa !10
  %16 = getelementptr inbounds nuw %"struct.duckdb_zstd::ZSTDMT_CCtx_s", ptr %15, i32 0, i32 6
  %17 = load i64, ptr %16, align 8, !tbaa !121
  store i64 %17, ptr %3, align 8, !tbaa !52
  br label %18

18:                                               ; preds = %14, %1
  %19 = load i64, ptr %3, align 8, !tbaa !52
  call void @llvm.lifetime.end.p0(i64 8, ptr %3) #12
  ret i64 %19
}