; Function Attrs: mustprogress nofree norecurse nosync nounwind willreturn memory(argmem: read) uwtable
define noundef i64 @_ZN11duckdb_zstd24ZSTDMT_nextInputSizeHintEPKNS_13ZSTDMT_CCtx_sE(ptr noundef readonly captures(none) %0) local_unnamed_addr #7 {
  %2 = getelementptr inbounds nuw i8, ptr %0, i64 256
  %3 = load i64, ptr %2, align 8, !tbaa !109
  %4 = getelementptr inbounds nuw i8, ptr %0, i64 312
  %5 = load i64, ptr %4, align 8, !tbaa !78
  %6 = icmp eq i64 %3, %5
  %7 = select i1 %6, i64 0, i64 %5
  %spec.select = sub i64 %3, %7
  ret i64 %spec.select
}